target datalayout = "e-m:e-p270:32:32-p271:32:32-p272:64:64-i64:64-i128:128-f80:128-n8:16:32:64-S128"
target triple = "x86_64-unknown-linux-gnu"

%struct._DBusDisplayConsole = type { %struct._GDBusObjectSkeleton, %struct.DisplayChangeListener, ptr, ptr, ptr, ptr, ptr, ptr, ptr, i32, i32, i32, %struct.Notifier }
%struct._GDBusObjectSkeleton = type { %struct._GObject, ptr }
%struct._GObject = type { %struct._GTypeInstance, i32, ptr }
%struct._GTypeInstance = type { ptr }
%struct.DisplayChangeListener = type { i64, ptr, ptr, ptr, %struct.anon }
%struct.anon = type { ptr, ptr }
%struct.Notifier = type { ptr, %struct.anon.0 }
%struct.anon.0 = type { ptr, ptr }
%struct._GObjectClass = type { %struct._GTypeClass, ptr, ptr, ptr, ptr, ptr, ptr, ptr, ptr, ptr, i64, [6 x ptr] }
%struct._GTypeClass = type { i64 }
%union.anon = type { ptr }
%union.anon.1 = type { ptr }
%union.anon.2 = type { ptr }
%union.anon.3 = type { ptr }
%union.anon.4 = type { ptr }
%union.anon.5 = type { ptr }

@dbus_display_console_get_type.static_g_define_type_id = internal global i64 0, align 8
@.str.25 = private unnamed_addr constant [19 x i8] c"DBusDisplayConsole\00", align 1
@dbus_display_console_parent_class = internal global ptr null, align 8

; Function Attrs: nounwind sspstrong uwtable
define internal i64 @dbus_display_console_get_type_once() #0 {
entry:
  %g_define_type_id = alloca i64, align 8
  %call = call i64 @g_dbus_object_skeleton_get_type() #7
  %call1 = call ptr @g_intern_static_string(ptr noundef @.str.25)
  %call2 = call i64 @g_type_register_static_simple(i64 noundef %call, ptr noundef %call1, i32 noundef 208, ptr noundef @dbus_display_console_class_intern_init, i32 noundef 176, ptr noundef @dbus_display_console_init, i32 noundef 0)
  store i64 %call2, ptr %g_define_type_id, align 8
  %0 = load i64, ptr %g_define_type_id, align 8
  ret i64 %0
}

; Function Attrs: nounwind sspstrong uwtable
define dso_local i64 @dbus_display_console_get_type() #0 {
entry:
  %tmp = alloca i32, align 4
  %gapg_temp_newval = alloca i64, align 8
  %gapg_temp_atomic = alloca ptr, align 8
  %tmp1 = alloca i64, align 8
  %g_define_type_id = alloca i64, align 8
  store ptr @dbus_display_console_get_type.static_g_define_type_id, ptr %gapg_temp_atomic, align 8
  %0 = load ptr, ptr %gapg_temp_atomic, align 8
  %1 = load atomic i64, ptr %0 seq_cst, align 8
  store i64 %1, ptr %gapg_temp_newval, align 8
  %2 = load i64, ptr %gapg_temp_newval, align 8
  store i64 %2, ptr %tmp1, align 8
  %3 = load i64, ptr %tmp1, align 8
  %tobool = icmp ne i64 %3, 0
  br i1 %tobool, label %land.end, label %land.rhs

land.rhs:                                         ; preds = %entry
  %call = call i32 @g_once_init_enter(ptr noundef @dbus_display_console_get_type.static_g_define_type_id)
  %tobool2 = icmp ne i32 %call, 0
  br label %land.end

land.end:                                         ; preds = %land.rhs, %entry
  %4 = phi i1 [ false, %entry ], [ %tobool2, %land.rhs ]
  %land.ext = zext i1 %4 to i32
  store i32 %land.ext, ptr %tmp, align 4
  %5 = load i32, ptr %tmp, align 4
  %tobool3 = icmp ne i32 %5, 0
  br i1 %tobool3, label %if.then, label %if.end

if.then:                                          ; preds = %land.end
  %call4 = call i64 @dbus_display_console_get_type_once()
  store i64 %call4, ptr %g_define_type_id, align 8
  %6 = load i64, ptr %g_define_type_id, align 8
  call void @g_once_init_leave(ptr noundef @dbus_display_console_get_type.static_g_define_type_id, i64 noundef %6)
  br label %if.end

if.end:                                           ; preds = %if.then, %land.end
  %7 = load i64, ptr @dbus_display_console_get_type.static_g_define_type_id, align 8
  ret i64 %7
}

; Function Attrs: nounwind sspstrong uwtable
define internal ptr @DBUS_DISPLAY_CONSOLE(ptr noundef %ptr) #0 {
entry:
  %ptr.addr = alloca ptr, align 8
  store ptr %ptr, ptr %ptr.addr, align 8
  %0 = load ptr, ptr %ptr.addr, align 8
  %call = call i64 @dbus_display_console_get_type()
  %call1 = call ptr @g_type_check_instance_cast(ptr noundef %0, i64 noundef %call)
  ret ptr %call1
}

; Function Attrs: nounwind sspstrong uwtable
define internal void @dbus_display_console_dispose(ptr noundef %object) #0 {
entry:
  %object.addr = alloca ptr, align 8
  %ddc = alloca ptr, align 8
  %_pp = alloca %union.anon, align 8
  %_p = alloca ptr, align 8
  %_destroy = alloca ptr, align 8
  %_pp2 = alloca %union.anon.1, align 8
  %_p3 = alloca ptr, align 8
  %_destroy4 = alloca ptr, align 8
  %_pp10 = alloca %union.anon.2, align 8
  %_p11 = alloca ptr, align 8
  %_destroy12 = alloca ptr, align 8
  %_pp18 = alloca %union.anon.3, align 8
  %_p19 = alloca ptr, align 8
  %_destroy20 = alloca ptr, align 8
  %_pp26 = alloca %union.anon.4, align 8
  %_p27 = alloca ptr, align 8
  %_destroy28 = alloca ptr, align 8
  %_pp34 = alloca %union.anon.5, align 8
  %_p35 = alloca ptr, align 8
  %_destroy36 = alloca ptr, align 8
  store ptr %object, ptr %object.addr, align 8
  %0 = load ptr, ptr %object.addr, align 8
  %call = call ptr @DBUS_DISPLAY_CONSOLE(ptr noundef %0)
  store ptr %call, ptr %ddc, align 8
  %1 = load ptr, ptr %ddc, align 8
  %dcl = getelementptr inbounds %struct._DBusDisplayConsole, ptr %1, i32 0, i32 1
  call void @unregister_displaychangelistener(ptr noundef %dcl)
  br label %do.body

do.body:                                          ; preds = %entry
  store ptr @g_object_unref, ptr %_destroy, align 8
  %2 = load ptr, ptr %ddc, align 8
  %iface_touch = getelementptr inbounds %struct._DBusDisplayConsole, ptr %2, i32 0, i32 8
  store ptr %iface_touch, ptr %_pp, align 8
  %3 = load ptr, ptr %_pp, align 8
  %4 = load ptr, ptr %3, align 8
  store ptr %4, ptr %_p, align 8
  %5 = load ptr, ptr %_p, align 8
  %tobool = icmp ne ptr %5, null
  br i1 %tobool, label %if.then, label %if.end

if.then:                                          ; preds = %do.body
  %6 = load ptr, ptr %_pp, align 8
  store ptr null, ptr %6, align 8
  %7 = load ptr, ptr %_destroy, align 8
  %8 = load ptr, ptr %_p, align 8
  call void %7(ptr noundef %8)
  br label %if.end

if.end:                                           ; preds = %if.then, %do.body
  br label %do.end

do.end:                                           ; preds = %if.end
  br label %do.body1

do.body1:                                         ; preds = %do.end
  store ptr @g_object_unref, ptr %_destroy4, align 8
  %9 = load ptr, ptr %ddc, align 8
  %iface_mouse = getelementptr inbounds %struct._DBusDisplayConsole, ptr %9, i32 0, i32 7
  store ptr %iface_mouse, ptr %_pp2, align 8
  %10 = load ptr, ptr %_pp2, align 8
  %11 = load ptr, ptr %10, align 8
  store ptr %11, ptr %_p3, align 8
  %12 = load ptr, ptr %_p3, align 8
  %tobool5 = icmp ne ptr %12, null
  br i1 %tobool5, label %if.then6, label %if.end7

if.then6:                                         ; preds = %do.body1
  %13 = load ptr, ptr %_pp2, align 8
  store ptr null, ptr %13, align 8
  %14 = load ptr, ptr %_destroy4, align 8
  %15 = load ptr, ptr %_p3, align 8
  call void %14(ptr noundef %15)
  br label %if.end7

if.end7:                                          ; preds = %if.then6, %do.body1
  br label %do.end8

do.end8:                                          ; preds = %if.end7
  br label %do.body9

do.body9:                                         ; preds = %do.end8
  store ptr @g_object_unref, ptr %_destroy12, align 8
  %16 = load ptr, ptr %ddc, align 8
  %iface_kbd = getelementptr inbounds %struct._DBusDisplayConsole, ptr %16, i32 0, i32 5
  store ptr %iface_kbd, ptr %_pp10, align 8
  %17 = load ptr, ptr %_pp10, align 8
  %18 = load ptr, ptr %17, align 8
  store ptr %18, ptr %_p11, align 8
  %19 = load ptr, ptr %_p11, align 8
  %tobool13 = icmp ne ptr %19, null
  br i1 %tobool13, label %if.then14, label %if.end15

if.then14:                                        ; preds = %do.body9
  %20 = load ptr, ptr %_pp10, align 8
  store ptr null, ptr %20, align 8
  %21 = load ptr, ptr %_destroy12, align 8
  %22 = load ptr, ptr %_p11, align 8
  call void %21(ptr noundef %22)
  br label %if.end15

if.end15:                                         ; preds = %if.then14, %do.body9
  br label %do.end16

do.end16:                                         ; preds = %if.end15
  br label %do.body17

do.body17:                                        ; preds = %do.end16
  store ptr @g_object_unref, ptr %_destroy20, align 8
  %23 = load ptr, ptr %ddc, align 8
  %iface = getelementptr inbounds %struct._DBusDisplayConsole, ptr %23, i32 0, i32 4
  store ptr %iface, ptr %_pp18, align 8
  %24 = load ptr, ptr %_pp18, align 8
  %25 = load ptr, ptr %24, align 8
  store ptr %25, ptr %_p19, align 8
  %26 = load ptr, ptr %_p19, align 8
  %tobool21 = icmp ne ptr %26, null
  br i1 %tobool21, label %if.then22, label %if.end23

if.then22:                                        ; preds = %do.body17
  %27 = load ptr, ptr %_pp18, align 8
  store ptr null, ptr %27, align 8
  %28 = load ptr, ptr %_destroy20, align 8
  %29 = load ptr, ptr %_p19, align 8
  call void %28(ptr noundef %29)
  br label %if.end23

if.end23:                                         ; preds = %if.then22, %do.body17
  br label %do.end24

do.end24:                                         ; preds = %if.end23
  br label %do.body25

do.body25:                                        ; preds = %do.end24
  store ptr @g_hash_table_unref, ptr %_destroy28, align 8
  %30 = load ptr, ptr %ddc, align 8
  %listeners = getelementptr inbounds %struct._DBusDisplayConsole, ptr %30, i32 0, i32 3
  store ptr %listeners, ptr %_pp26, align 8
  %31 = load ptr, ptr %_pp26, align 8
  %32 = load ptr, ptr %31, align 8
  store ptr %32, ptr %_p27, align 8
  %33 = load ptr, ptr %_p27, align 8
  %tobool29 = icmp ne ptr %33, null
  br i1 %tobool29, label %if.then30, label %if.end31

if.then30:                                        ; preds = %do.body25
  %34 = load ptr, ptr %_pp26, align 8
  store ptr null, ptr %34, align 8
  %35 = load ptr, ptr %_destroy28, align 8
  %36 = load ptr, ptr %_p27, align 8
  call void %35(ptr noundef %36)
  br label %if.end31

if.end31:                                         ; preds = %if.then30, %do.body25
  br label %do.end32

do.end32:                                         ; preds = %if.end31
  br label %do.body33

do.body33:                                        ; preds = %do.end32
  store ptr @qkbd_state_free, ptr %_destroy36, align 8
  %37 = load ptr, ptr %ddc, align 8
  %kbd = getelementptr inbounds %struct._DBusDisplayConsole, ptr %37, i32 0, i32 6
  store ptr %kbd, ptr %_pp34, align 8
  %38 = load ptr, ptr %_pp34, align 8
  %39 = load ptr, ptr %38, align 8
  store ptr %39, ptr %_p35, align 8
  %40 = load ptr, ptr %_p35, align 8
  %tobool37 = icmp ne ptr %40, null
  br i1 %tobool37, label %if.then38, label %if.end39

if.then38:                                        ; preds = %do.body33
  %41 = load ptr, ptr %_pp34, align 8
  store ptr null, ptr %41, align 8
  %42 = load ptr, ptr %_destroy36, align 8
  %43 = load ptr, ptr %_p35, align 8
  call void %42(ptr noundef %43)
  br label %if.end39

if.end39:                                         ; preds = %if.then38, %do.body33
  br label %do.end40

do.end40:                                         ; preds = %if.end39
  %44 = load ptr, ptr @dbus_display_console_parent_class, align 8
  %call41 = call ptr @g_type_check_class_cast(ptr noundef %44, i64 noundef 80)
  %dispose = getelementptr inbounds %struct._GObjectClass, ptr %call41, i32 0, i32 5
  %45 = load ptr, ptr %dispose, align 8
  %46 = load ptr, ptr %object.addr, align 8
  call void %45(ptr noundef %46)
  ret void
}