; Function Attrs: nounwind sspstrong uwtable
define internal void @dbus_display_console_dispose(ptr noundef %object) #0 {
entry:
  %0 = load atomic i64, ptr @dbus_display_console_get_type.static_g_define_type_id seq_cst, align 8
  %tobool.not.i.i = icmp eq i64 %0, 0
  br i1 %tobool.not.i.i, label %land.rhs.i.i, label %DBUS_DISPLAY_CONSOLE.exit

land.rhs.i.i:                                     ; preds = %entry
  %call.i.i = tail call i32 @g_once_init_enter(ptr noundef nonnull @dbus_display_console_get_type.static_g_define_type_id) #9
  %tobool2.not.i.i = icmp eq i32 %call.i.i, 0
  br i1 %tobool2.not.i.i, label %DBUS_DISPLAY_CONSOLE.exit, label %if.then.i.i

if.then.i.i:                                      ; preds = %land.rhs.i.i
  %call.i.i.i = tail call i64 @g_dbus_object_skeleton_get_type() #10
  %call1.i.i.i = tail call ptr @g_intern_static_string(ptr noundef nonnull @.str.25) #9
  %call2.i.i.i = tail call i64 @g_type_register_static_simple(i64 noundef %call.i.i.i, ptr noundef %call1.i.i.i, i32 noundef 208, ptr noundef nonnull @dbus_display_console_class_intern_init, i32 noundef 176, ptr noundef nonnull @dbus_display_console_init, i32 noundef 0) #9
  tail call void @g_once_init_leave(ptr noundef nonnull @dbus_display_console_get_type.static_g_define_type_id, i64 noundef %call2.i.i.i) #9
  br label %DBUS_DISPLAY_CONSOLE.exit

DBUS_DISPLAY_CONSOLE.exit:                        ; preds = %entry, %land.rhs.i.i, %if.then.i.i
  %1 = load i64, ptr @dbus_display_console_get_type.static_g_define_type_id, align 8
  %call1.i = tail call ptr @g_type_check_instance_cast(ptr noundef %object, i64 noundef %1) #9
  %dcl = getelementptr inbounds nuw i8, ptr %call1.i, i64 32
  tail call void @unregister_displaychangelistener(ptr noundef nonnull %dcl) #9
  %iface_touch = getelementptr inbounds nuw i8, ptr %call1.i, i64 128
  %2 = load ptr, ptr %iface_touch, align 8
  %tobool.not = icmp eq ptr %2, null
  br i1 %tobool.not, label %do.body1, label %if.then

if.then:                                          ; preds = %DBUS_DISPLAY_CONSOLE.exit
  store ptr null, ptr %iface_touch, align 8
  tail call void @g_object_unref(ptr noundef nonnull %2) #9
  br label %do.body1

do.body1:                                         ; preds = %if.then, %DBUS_DISPLAY_CONSOLE.exit
  %iface_mouse = getelementptr inbounds nuw i8, ptr %call1.i, i64 120
  %3 = load ptr, ptr %iface_mouse, align 8
  %tobool5.not = icmp eq ptr %3, null
  br i1 %tobool5.not, label %do.body9, label %if.then6

if.then6:                                         ; preds = %do.body1
  store ptr null, ptr %iface_mouse, align 8
  tail call void @g_object_unref(ptr noundef nonnull %3) #9
  br label %do.body9

do.body9:                                         ; preds = %if.then6, %do.body1
  %iface_kbd = getelementptr inbounds nuw i8, ptr %call1.i, i64 104
  %4 = load ptr, ptr %iface_kbd, align 8
  %tobool13.not = icmp eq ptr %4, null
  br i1 %tobool13.not, label %do.body17, label %if.then14

if.then14:                                        ; preds = %do.body9
  store ptr null, ptr %iface_kbd, align 8
  tail call void @g_object_unref(ptr noundef nonnull %4) #9
  br label %do.body17

do.body17:                                        ; preds = %if.then14, %do.body9
  %iface = getelementptr inbounds nuw i8, ptr %call1.i, i64 96
  %5 = load ptr, ptr %iface, align 8
  %tobool21.not = icmp eq ptr %5, null
  br i1 %tobool21.not, label %do.body25, label %if.then22

if.then22:                                        ; preds = %do.body17
  store ptr null, ptr %iface, align 8
  tail call void @g_object_unref(ptr noundef nonnull %5) #9
  br label %do.body25

do.body25:                                        ; preds = %if.then22, %do.body17
  %listeners = getelementptr inbounds nuw i8, ptr %call1.i, i64 88
  %6 = load ptr, ptr %listeners, align 8
  %tobool29.not = icmp eq ptr %6, null
  br i1 %tobool29.not, label %do.body33, label %if.then30

if.then30:                                        ; preds = %do.body25
  store ptr null, ptr %listeners, align 8
  tail call void @g_hash_table_unref(ptr noundef nonnull %6) #9
  br label %do.body33

do.body33:                                        ; preds = %if.then30, %do.body25
  %kbd = getelementptr inbounds nuw i8, ptr %call1.i, i64 112
  %7 = load ptr, ptr %kbd, align 8
  %tobool37.not = icmp eq ptr %7, null
  br i1 %tobool37.not, label %do.end40, label %if.then38

if.then38:                                        ; preds = %do.body33
  store ptr null, ptr %kbd, align 8
  tail call void @qkbd_state_free(ptr noundef nonnull %7) #9
  br label %do.end40

do.end40:                                         ; preds = %do.body33, %if.then38
  %8 = load ptr, ptr @dbus_display_console_parent_class, align 8
  %call41 = tail call ptr @g_type_check_class_cast(ptr noundef %8, i64 noundef 80) #9
  %dispose = getelementptr inbounds nuw i8, ptr %call41, i64 40
  %9 = load ptr, ptr %dispose, align 8
  tail call void %9(ptr noundef %object) #9
  ret void
}